; Function Attrs: mustprogress nofree nounwind uwtable
define internal fastcc noundef nonnull ptr @_ZN12_GLOBAL__N_116itanium_demangle22AbstractManglingParserINS0_14ManglingParserINS_16DefaultAllocatorEEES3_E4makeINS0_15ClosureTypeNameEJRNS0_9NodeArrayERPNS0_4NodeES9_SC_RNSt3__117basic_string_viewIcNSD_11char_traitsIcEEEEEEESB_DpOT0_(ptr noundef nonnull align 16 captures(none) dereferenceable(4928) %0, ptr %.0.val, i64 %.8.val, ptr %.0.val1, ptr %.0.val3, i64 %.8.val5, ptr %.0.val7, ptr noundef nonnull readonly align 8 captures(none) dereferenceable(16) %1) unnamed_addr #20 align 2 {
  %3 = alloca %"class.std::__1::basic_string_view", align 8
  %4 = getelementptr inbounds nuw i8, ptr %0, i64 4912
  %5 = load ptr, ptr %4, align 16, !tbaa !209
  %6 = getelementptr inbounds nuw i8, ptr %5, i64 8
  %7 = load i64, ptr %6, align 8, !tbaa !211
  %8 = add i64 %7, -4000
  %9 = icmp ult i64 %8, -4080
  br i1 %9, label %10, label %_ZN12_GLOBAL__N_116DefaultAllocator8makeNodeINS_16itanium_demangle15ClosureTypeNameEJRNS2_9NodeArrayERPNS2_4NodeES5_S8_RNSt3__117basic_string_viewIcNS9_11char_traitsIcEEEEEEEPT_DpOT0_.exit

10:                                               ; preds = %2
  %11 = tail call noalias dereferenceable_or_null(4096) ptr @malloc(i64 noundef 4096) #32
  %12 = icmp eq ptr %11, null
  br i1 %12, label %13, label %_ZN12_GLOBAL__N_120BumpPointerAllocator4growEv.exit.i.i

13:                                               ; preds = %10
  tail call void @_ZSt9terminatev() #33
  unreachable

_ZN12_GLOBAL__N_120BumpPointerAllocator4growEv.exit.i.i: ; preds = %10
  store ptr %5, ptr %11, align 8, !tbaa !213
  %14 = getelementptr inbounds nuw i8, ptr %11, i64 8
  store i64 0, ptr %14, align 8, !tbaa !211
  store ptr %11, ptr %4, align 16, !tbaa !209
  br label %_ZN12_GLOBAL__N_116DefaultAllocator8makeNodeINS_16itanium_demangle15ClosureTypeNameEJRNS2_9NodeArrayERPNS2_4NodeES5_S8_RNSt3__117basic_string_viewIcNS9_11char_traitsIcEEEEEEEPT_DpOT0_.exit

_ZN12_GLOBAL__N_116DefaultAllocator8makeNodeINS_16itanium_demangle15ClosureTypeNameEJRNS2_9NodeArrayERPNS2_4NodeES5_S8_RNSt3__117basic_string_viewIcNS9_11char_traitsIcEEEEEEEPT_DpOT0_.exit: ; preds = %2, %_ZN12_GLOBAL__N_120BumpPointerAllocator4growEv.exit.i.i
  %15 = phi i64 [ 0, %_ZN12_GLOBAL__N_120BumpPointerAllocator4growEv.exit.i.i ], [ %7, %2 ]
  %16 = phi ptr [ %11, %_ZN12_GLOBAL__N_120BumpPointerAllocator4growEv.exit.i.i ], [ %5, %2 ]
  %17 = getelementptr inbounds nuw i8, ptr %16, i64 8
  %18 = add nsw i64 %15, 80
  store i64 %18, ptr %17, align 8, !tbaa !211
  %19 = getelementptr inbounds nuw i8, ptr %16, i64 16
  %20 = getelementptr inbounds i8, ptr %19, i64 %15
  call void @llvm.lifetime.start.p0(i64 16, ptr nonnull %3)
  call void @llvm.memcpy.p0.p0.i64(ptr noundef nonnull align 8 dereferenceable(16) %3, ptr noundef nonnull readonly align 8 dereferenceable(16) %1, i64 16, i1 false)
  %21 = getelementptr inbounds nuw i8, ptr %20, i64 8
  store i8 52, ptr %21, align 8, !tbaa !16
  %22 = getelementptr inbounds nuw i8, ptr %20, i64 9
  %23 = load i16, ptr %22, align 1
  %24 = and i16 %23, -4096
  %25 = or disjoint i16 %24, 1344
  store i16 %25, ptr %22, align 1
  store ptr getelementptr inbounds nuw inrange(-16, 80) (i8, ptr @_ZTVN12_GLOBAL__N_116itanium_demangle15ClosureTypeNameE, i64 16), ptr %20, align 8, !tbaa !214
  %26 = getelementptr inbounds nuw i8, ptr %20, i64 16
  store ptr %.0.val, ptr %26, align 8, !tbaa !230
  %.sroa.24.0..sroa_idx.i.i = getelementptr inbounds nuw i8, ptr %20, i64 24
  store i64 %.8.val, ptr %.sroa.24.0..sroa_idx.i.i, align 8, !tbaa !220
  %27 = getelementptr inbounds nuw i8, ptr %20, i64 32
  store ptr %.0.val1, ptr %27, align 8, !tbaa !354
  %28 = getelementptr inbounds nuw i8, ptr %20, i64 40
  store ptr %.0.val3, ptr %28, align 8, !tbaa !230
  %.sroa.2.0..sroa_idx.i.i = getelementptr inbounds nuw i8, ptr %20, i64 48
  store i64 %.8.val5, ptr %.sroa.2.0..sroa_idx.i.i, align 8, !tbaa !220
  %29 = getelementptr inbounds nuw i8, ptr %20, i64 56
  store ptr %.0.val7, ptr %29, align 8, !tbaa !356
  %30 = getelementptr inbounds nuw i8, ptr %20, i64 64
  call void @llvm.memcpy.p0.p0.i64(ptr noundef nonnull align 8 dereferenceable(16) %30, ptr noundef nonnull readonly align 8 dereferenceable(16) %3, i64 16, i1 false), !tbaa.struct !487
  call void @llvm.lifetime.end.p0(i64 16, ptr nonnull %3)
  ret ptr %20
}